** EXPERIMENTAL (HLL) ** Open Watcom Linker Version 2.0beta1 Limited Availability
Portions Copyright (c) 1985-2002 Sybase, Inc. All Rights Reserved.
Created on:       25/01/14 15:15:24
Executable Image: atari800.exe
creating an OS/2 EMX executable


                        +------------+
                        |   Groups   |
                        +------------+

Group                           Address              Size
=====                           =======              ====

CGROUP                          0001:00000000        00097720
DGROUP                          0002:00000000        001666a0



                        +--------------+
                        |   Segments   |
                        +--------------+

Segment                Class          Group          Address         Size
=======                =====          =====          =======         ====

TEXT32                 CODE           CGROUP         0001:00000000   00097718
________TEXT           CODE           CGROUP         0001:00097720   00000000
DATA32                 DATA           DGROUP         0002:00000000   00005760
SET1__os2dll           DATA           DGROUP         0002:00005760   00000004
SET2__os2dll           DATA           DGROUP         0002:00005764   00000000
SET3__os2dll           DATA           DGROUP         0002:00005764   00000004
SET1___CTOR_LIST__     DATA           DGROUP         0002:00005768   00000004
SET2___CTOR_LIST__     DATA           DGROUP         0002:0000576c   00000004
SET3___CTOR_LIST__     DATA           DGROUP         0002:00005770   00000004
SET1___DTOR_LIST__     DATA           DGROUP         0002:00005774   00000004
SET2___DTOR_LIST__     DATA           DGROUP         0002:00005778   00000000
SET3___DTOR_LIST__     DATA           DGROUP         0002:00005778   00000004
SET1___crtinit1__      DATA           DGROUP         0002:0000577c   00000004
SET2___crtinit1__      DATA           DGROUP         0002:00005780   00000000
SET3___crtinit1__      DATA           DGROUP         0002:00005780   00000004
SET1___crtexit1__      DATA           DGROUP         0002:00005784   00000004
SET2___crtexit1__      DATA           DGROUP         0002:00005788   00000000
SET3___crtexit1__      DATA           DGROUP         0002:00005788   00000004
SET1___eh_frame__      DATA           DGROUP         0002:0000578c   00000004
SET2___eh_frame__      DATA           DGROUP         0002:00005790   00000008
SET3___eh_frame__      DATA           DGROUP         0002:00005798   00000004
SET1___eh_init__       DATA           DGROUP         0002:0000579c   00000004
SET2___eh_init__       DATA           DGROUP         0002:000057a0   00000004
SET3___eh_init__       DATA           DGROUP         0002:000057a4   00000004
SET1___eh_term__       DATA           DGROUP         0002:000057a8   00000004
SET2___eh_term__       DATA           DGROUP         0002:000057ac   00000004
SET3___eh_term__       DATA           DGROUP         0002:000057b0   00000004
SET1___fork_parent1__  DATA           DGROUP         0002:000057b4   00000004
SET2___fork_parent1__  DATA           DGROUP         0002:000057b8   00000000
SET3___fork_parent1__  DATA           DGROUP         0002:000057b8   00000004
SET1___fork_child1__   DATA           DGROUP         0002:000057bc   00000004
SET2___fork_child1__   DATA           DGROUP         0002:000057c0   00000000
SET3___fork_child1__   DATA           DGROUP         0002:000057c0   00000004
________DATA           DATA           DGROUP         0002:000057d0   00000000
BSS32                  BSS            DGROUP         0002:000057d0   0003c4b0
c_common               BSS            DGROUP         0002:00041c80   00124a20
________BSS            BSS            DGROUP         0002:001666a0   00000000
STACK                  STACK          AUTO           0003:00000000   00100000


                        +----------------+
                        |   Memory Map   |
                        +----------------+

* = unreferenced symbol
+ = symbol only referenced locally

Address        Symbol
=======        ======

Module: D:\usr\lib\crt0hiwildresp.obj(D:\Temp\ccPGoCp4.s)
0001:00000000* __text
0002:00000000* __data
0002:00000000* ___data_start
0002:000057d0* ___bss_start
0002:00005760+ __os2dll
0002:00005768  ___CTOR_LIST__
0002:00005774  ___DTOR_LIST__
0002:0000577c* ___crtinit1__
0002:00005784* ___crtexit1__
0002:0000578c  ___eh_frame__
0002:0000579c  ___eh_init__
0002:000057a8  ___eh_term__
0002:000057b4+ ___fork_parent1__
0002:000057bc+ ___fork_child1__
Module: D:/var/temp\ldconv_atari800-afile_o_db9067867178165ce8.obj(afile.c)
0001:00000080* _AFILE_DetectFileType
0001:00000420  _AFILE_OpenFile
Module: D:/var/temp\ldconv_atari800-antic_o_db9067867178172420.obj(antic.c)
0002:00041c80  _ANTIC_cl
0002:00041d80  _ANTIC_lookup_gtia9
0002:00041dc0  _ANTIC_lookup_gtia11
0002:00041e00  _ANTIC_hires_lookup_l
0002:00041f00  _ANTIC_DMACTL
0002:00041f08  _ANTIC_cpu2antic_ptr
0002:00041f18  _ANTIC_HSCROL
0002:00041f20  _ANTIC_artif_mode
0002:00041f30  _ANTIC_antic2cpu_ptr
0002:00041f40  _ANTIC_player_flickering
0002:00041f50  _ANTIC_ypos
0002:00041f60  _ANTIC_NMIST
0002:00041f68  _ANTIC_missile_dma_enabled
0002:00041f78  _ANTIC_player_dma_enabled
0002:00041f88  _ANTIC_player_gra_enabled
0002:00041f98  _ANTIC_missile_gra_enabled
0002:00041fa8  _ANTIC_missile_flickering
0002:00041fb8  _ANTIC_CHACTL
0002:00041fc0  _ANTIC_dlist
0002:00041fd0  _ANTIC_VSCROL
0002:00041fd8  _ANTIC_PMBASE
0002:00041fe0  _ANTIC_CHBASE
0002:00041fe8  _ANTIC_xpos_limit
0002:00041ff8  _ANTIC_NMIEN
0001:00004d90  _ANTIC_VideoMemset
0001:00004da0  _ANTIC_VideoPutByte
0001:00004db0  _ANTIC_UpdateArtifacting
0001:000050c0  _ANTIC_Initialise
0001:00005480  _ANTIC_GetDLByte
0001:00005500  _ANTIC_GetDLWord
0001:00005560  _ANTIC_UpdateScanline
0001:00005590  _ANTIC_UpdateScanlinePrior
0001:000055c0  _ANTIC_GetByte
0001:00005670  _ANTIC_SetPrior
0001:00005b60  _ANTIC_PutByte
0001:00006770  _ANTIC_Reset
0001:000067a0  _ANTIC_Frame
0001:00007890  _ANTIC_StateSave
0001:00007a20  _ANTIC_StateRead
0002:00000058  _ANTIC_cur_screen_pos
0002:00000188  _ANTIC_break_ypos
0002:00000184  _ANTIC_PENV_input
0002:000057e4  _ANTIC_xe_ptr
0002:000057dc  _ANTIC_xpos
0002:000057d0  _ANTIC_artif_new
0002:000057d8  _ANTIC_wsync_halt
0002:000057ec  _ANTIC_delayed_wsync
0002:000057e0  _ANTIC_screenline_cpu_clock
0002:000057e8  _ANTIC_pal_blending
0002:000057d4  _ANTIC_PENH_input
Module: D:/var/temp\ldconv_atari800-atari_o_db90678671781829d8.obj(atari.c)
0002:00042000  _Atari800_jumper
0001:00007f70  _Atari800_SetMachineType
0001:00007f90  _Atari800_UpdateKeyboardDetached
0001:00007fd0  _Atari800_UpdateJumper
0001:00007ff0  _Atari800_Warmstart
0001:00008070  _Atari800_Coldstart
0001:00008110  _Atari800_LoadImage
0001:000081b0  _Atari800_InitialiseMachine
0001:000081f0  _Atari800_Exit
0001:00008b40  _Atari800_Initialise
0001:00009f90  _Atari800_ErrExit
0001:00009fb0  _Atari800_Sync
0001:0000a1c0  _Atari800_Frame
0001:0000a430  _Atari800_StateSave
0001:0000a520  _Atari800_SetTVMode
0001:0000a630  _Atari800_StateRead
0002:00000194  _Atari800_os_version
0002:0000019c  _Atari800_tv_mode
0002:000001a4  _Atari800_machine_type
0002:000001a0  _Atari800_builtin_basic
0002:00000198  _Atari800_disable_basic
0002:00000190  _Atari800_refresh_rate
0002:00008fe4  _Atari800_builtin_game
0002:00008fc0* _sigint_flag
0002:00008fec  _Atari800_keyboard_leds
0002:00008fe8  _Atari800_f_keys
0002:00008fe0  _Atari800_keyboard_detached
0002:00008fdc* _verbose
0002:00008fcc  _Atari800_turbo
0002:00008fc8  _Atari800_start_in_monitor
0002:00008fc4* _Atari800_auto_frameskip
0002:00008fd4  _Atari800_nframes
0002:00008fd0  _Atari800_collisions_in_skipped_frames
0002:00008fd8  _Atari800_display_screen
Module: D:/var/temp\ldconv_atari800-binload_o_db906786717818a2f0.obj(binload.c)
0002:00042010  _BINLOAD_pause_loading
0001:0000ae20  _BINLOAD_LoaderStart
0001:0000af10  _BINLOAD_Loader
0002:00009064  _BINLOAD_bin_file
0002:00009070  _BINLOAD_start_binloading
0002:00009060  _BINLOAD_wait_active
0002:00009068  _BINLOAD_slow_xex_loading
0002:0000906c  _BINLOAD_loading_basic
Module: D:/var/temp\ldconv_atari800-cartridge_o_db90678671781e34b8.obj(cartridge.c)
0001:0000db00  _CARTRIDGE_UpdateState
0001:0000db20  _CARTRIDGE_GetByte
0001:0000dc00  _CARTRIDGE_PutByte
0001:0000dce0  _CARTRIDGE_BountyBob1GetByte
0001:0000dd20  _CARTRIDGE_BountyBob2GetByte
0001:0000dd60  _CARTRIDGE_5200SuperCartGetByte
0001:0000dda0  _CARTRIDGE_BountyBob1PutByte
0001:0000ddb0  _CARTRIDGE_BountyBob2PutByte
0001:0000ddc0  _CARTRIDGE_5200SuperCartPutByte
0001:0000ddf0  _CARTRIDGE_WriteImage
0001:0000dff0  _CARTRIDGE_SetType
0001:0000e030  _CARTRIDGE_SetTypeAutoReboot
0001:0000e090  _CARTRIDGE_ColdStart
0001:0000e1a0  _CARTRIDGE_ReadImage
0001:0000e540  _CARTRIDGE_Insert
0001:0000e580  _CARTRIDGE_InsertAutoReboot
0001:0000e5b0  _CARTRIDGE_Insert_Second
0001:0000e5e0  _CARTRIDGE_RemoveAutoReboot
0001:0000e620  _CARTRIDGE_Remove_Second
0001:0000e6a0  _CARTRIDGE_ReadConfig
0001:0000e8b0  _CARTRIDGE_WriteConfig
0001:0000eb20  _CARTRIDGE_Initialise
0001:0000ef10  _CARTRIDGE_Exit
0001:0000ef40* _CARTRIDGE_Remove
0001:0000ef50  _CARTRIDGE_StateRead
0001:0000f150  _CARTRIDGE_StateSave
0002:00000380  _CARTRIDGE_main
0002:00000260  _CARTRIDGE_piggyback
0002:00000498  _CARTRIDGE_autoreboot
Module: D:/var/temp\ldconv_atari800-cartridge_info_o_db90678671781eadd0.obj(cartridge_info.c)
0001:0000f2c0  _CARTRIDGE_Checksum
0001:0000ff40  _CARTRIDGES
Module: D:/var/temp\ldconv_atari800-cassette_o_db906786717910.obj(cassette.c)
0002:00042020  _CASSETTE_filename
0002:00042130  _CASSETTE_description
0001:00010550  _CASSETTE_ReadConfig
0001:00010680  _CASSETTE_WriteConfig
0001:000106f0  _CASSETTE_Remove
0001:00010730  _CASSETTE_Exit
0001:00010740  _CASSETTE_Insert
0001:00010920  _CASSETTE_Initialise
0001:00010bc0  _CASSETTE_CreateCAS
0001:00010c90  _CASSETTE_GetPosition
0001:00010cc0  _CASSETTE_GetSize
0001:00010cf0  _CASSETTE_Seek
0001:00010d60  _CASSETTE_GetByte
0001:00010d70  _CASSETTE_IOLineStatus
0001:00010db0  _CASSETTE_PutByte
0001:00010e10  _CASSETTE_TapeMotor
0001:00010e30  _CASSETTE_ToggleWriteProtect
0001:00010e70  _CASSETTE_ToggleRecord
0001:00010f20  _CASSETTE_AddScanLine
0001:00011010  _CASSETTE_ResetPOKEY
0001:00011030  _CASSETTE_AddGap
0001:00011060  _CASSETTE_LeaderLoad
0001:000110a0  _CASSETTE_LeaderSave
0001:000110e0  _CASSETTE_ReadToMemory
0001:000111d0  _CASSETTE_WriteFromMemory
0002:000090dc  _CASSETTE_status
0002:000090cc  _CASSETTE_readable
0002:000090d8  _CASSETTE_write_protect
0002:000090d0  _CASSETTE_writable
0002:000090d4  _CASSETTE_record
0002:000090c4  _CASSETTE_hold_start
0002:000090c0  _CASSETTE_press_space
0002:000090c8  _CASSETTE_hold_start_on_reboot
Module: D:/var/temp\ldconv_atari800-compfile_o_db906786717915208.obj(compfile.c)
0001:00011780  _CompFile_ExtractGZ
0001:00011980  _CompFile_DCMtoATR
Module: D:/var/temp\ldconv_atari800-cfg_o_db90678671791b798.obj(cfg.c)
0001:000120b0  _CFG_LoadConfig
0001:00013210  _CFG_WriteConfig
0001:00013760  _CFG_MatchTextParameter
0002:00009150  _CFG_save_on_exit
Module: D:/var/temp\ldconv_atari800-cpu_o_db9067867179111940.obj(cpu.c)
0002:00042230  _CPU_regP
0002:00042238  _CPU_regA
0002:00042240  _CPU_regS
0002:00042248  _CPU_IRQ
0002:00042250  _CPU_regX
0002:00042258  _CPU_regPC
0002:00042268  _CPU_regY
0002:00042270+ _CPU_delayed_nmi
0002:00042278  _CPU_remember_op
0002:00042338  _CPU_remember_PC
0002:000423b8  _CPU_remember_xpos
0002:000424b8  _CPU_remember_JMP
0001:000137e0  _CPU_GetStatus
0001:00013830* _CPU_PutStatus
0001:00013860  _CPU_GO
0001:00018570  _CPU_NMI
0001:00018660  _CPU_Reset
0001:000186a0  _CPU_StateSave
0001:00018750  _CPU_StateRead
0002:00009278  _CPU_remember_PC_curpos
0002:00009274  _CPU_remember_jmp_curpos
0002:0000927c  _CPU_rts_handler
0002:00009270  _CPU_cim_encountered
Module: D:/var/temp\ldconv_atari800-crc32_o_db9067867179119a28.obj(crc32.c)
0001:00019040  _CRC32_FromFile
Module: D:/var/temp\ldconv_atari800-devices_o_db906786717911ffb8.obj(devices.c)
0002:000424d8+ _dev_b_status
0002:000426e8  _Devices_h_current_dir
0002:00042af8  _Devices_atari_h_dir
0001:0001c670  _Devices_H_CountOpen
0001:0001c690  _Devices_H_CloseAll
0001:0001c930  _Devices_Initialise
0001:0001cd00  _Devices_Exit
0001:0001cd10* _Devices_SkipDeviceName
0001:0001cd60  _Devices_SetPrintCommand
0001:0001cde0  _Devices_PatchOS
0001:0001d0d0* _Devices_UpdateHATABSEntry
0001:0001d180* _Devices_RemoveHATABSEntry
0001:0001d1b0  _Devices_Frame
0001:0001d230  _Devices_UpdatePatches
0002:000004d0  _Devices_print_command
0002:000005f0  _Devices_h_exe_path
0002:000005d4  _Devices_h_device_name
0002:000006f4  _Devices_h_read_only
0002:000004c0  _Devices_enable_p_patch
0002:000004c4  _Devices_enable_h_patch
0002:000092c0* _Devices_enable_b_patch
0002:000092c4  _Devices_enable_r_patch
Module: D:/var/temp\ldconv_atari800-esc_o_db9067867179129040.obj(esc.c)
0001:0001d710  _ESC_ClearAll
0001:0001d730  _ESC_Add
0001:0001d770  _ESC_AddEscRts
0001:0001d7b0  _ESC_AddEscRts2
0001:0001d7f0  _ESC_Remove
0001:0001d810  _ESC_Run
0001:0001d870  _ESC_PatchOS
0001:0001dc10  _ESC_UpdatePatches
0002:00000710  _ESC_enable_sio_patch
Module: D:/var/temp\ldconv_atari800-gtia_o_db906786717912f9b8.obj(gtia.c)
0002:00042f08+ _GTIA_P1PL
0002:00042f10+ _GTIA_M3PL
0002:00042f18+ _GTIA_M2PL
0002:00042f20+ _GTIA_P2PL
0002:00042f28+ _GTIA_P3PL
0002:00042f30+ _GTIA_M0PL
0002:00042f38+ _GTIA_M1PL
0002:00042f40  _GTIA_pm_scanline
0002:00043010+ _collision_curpos
0002:00043020+ _hitclr_pos
0002:00043030+ _P1PL_T
0002:00043038+ _P2PL_T
0002:00043040+ _P3PL_T
0002:00043048+ _M0PL_T
0002:00043050+ _M1PL_T
0002:00043058+ _M2PL_T
0002:00043060+ _M3PL_T
0002:00043068  _GTIA_GRAFP0
0002:00043070  _GTIA_GRAFP1
0002:00043078  _GTIA_GRAFP2
0002:00043080  _GTIA_GRAFP3
0002:00043088  _GTIA_GRAFM
0002:00043090  _GTIA_GRACTL
0002:00043098  _GTIA_TRIG_latch
0002:000430a8  _GTIA_TRIG
0002:000430b8+ _consol_mask
0002:000430c0  _GTIA_PRIOR
0002:000430c8  _GTIA_speaker
0002:000430d8+ _GTIA_P0PL
0002:000430e0  _GTIA_COLBK
0002:000430e8  _GTIA_COLPF3
0002:000430f0  _GTIA_VDELAY
0002:000430f8  _GTIA_COLPF2
0002:00043100  _GTIA_COLPF1
0002:00043108  _GTIA_COLPM2
0002:00043110  _GTIA_COLPM1
0002:00043118  _GTIA_COLPF0
0002:00043120  _GTIA_COLPM0
0002:00043128  _GTIA_COLPM3
0002:00043130  _GTIA_HPOSP3
0002:00043138  _GTIA_SIZEP0
0002:00043140  _GTIA_HPOSM3
0002:00043148  _GTIA_HPOSM2
0002:00043150  _GTIA_HPOSM1
0002:00043158  _GTIA_HPOSM0
0002:00043160  _GTIA_HPOSP2
0002:00043168  _GTIA_HPOSP1
0002:00043170  _GTIA_SIZEM
0002:00043178  _GTIA_SIZEP3
0002:00043180  _GTIA_SIZEP2
0002:00043188  _GTIA_SIZEP1
0002:00043190  _GTIA_HPOSP0
0001:0001de40  _GTIA_UpdatePmplColls
0001:0001dee0  _GTIA_NewPmScanline
0001:0001e2c0  _GTIA_Frame
0001:0001e2f0  _GTIA_GetByte
0001:0001e870  _GTIA_PutByte
0001:0001fa50  _GTIA_Initialise
0001:0001fb10  _GTIA_StateSave
0001:0001fec0  _GTIA_StateRead
0002:00000720  _GTIA_pm_dirty
0002:00000727* _GTIA_collisions_mask_missile_playfield
0002:00000724* _GTIA_collisions_mask_player_player
0002:00000725* _GTIA_collisions_mask_missile_player
0002:00000726* _GTIA_collisions_mask_player_playfield
0002:0000a1d0  _GTIA_consol_override
Module: D:/var/temp\ldconv_atari800-img_tape_o_db9067867179135778.obj(img_tape.c)
0001:000208c0  _IMG_TAPE_FileSupported
0001:000208f0  _IMG_TAPE_Open
0001:00020c20  _IMG_TAPE_Close
0001:00020c80  _IMG_TAPE_Create
0001:00020e50  _IMG_TAPE_Read
0001:00020fc0  _IMG_TAPE_WriteAdvance
0001:00021010  _IMG_TAPE_WriteByte
0001:000210e0  _IMG_TAPE_Flush
0001:00021110  _IMG_TAPE_GetPosition
0001:00021120  _IMG_TAPE_GetSize
0001:00021130  _IMG_TAPE_Seek
0001:000211a0  _IMG_TAPE_SerinStatus
0001:00021260  _IMG_TAPE_SkipToData
0001:00021350  _IMG_TAPE_ReadToMemory
0001:00021450  _IMG_TAPE_WriteFromMemory
Module: D:/var/temp\ldconv_atari800-log_o_db906786717913b920.obj(log.c)
0001:00021520  _Log_print
0001:000215b0  _Log_flushlog
Module: D:/var/temp\ldconv_atari800-memory_o_db9067867179141ac8.obj(memory.c)
0002:00043198  _MEMORY_xegame
0002:00045198  _MEMORY_basic
0002:00047198  _MEMORY_os
0002:0004b198  _MEMORY_mem
0002:0005b1a8  _MEMORY_attrib
0001:00021840  _MEMORY_SizeValid
0001:000218b0  _MEMORY_InitialiseMachine
0001:00021d20  _MEMORY_StateSave
0001:000220b0  _MEMORY_StateRead
0001:000227b0  _MEMORY_HandlePORTB
0001:000232c0  _MEMORY_Cart809fDisable
0001:00023390  _MEMORY_Cart809fEnable
0001:00023410  _MEMORY_CartA0bfDisable
0001:00023560  _MEMORY_CartA0bfEnable
0001:00023610  _MEMORY_GetCharset
0001:000236d0  _MEMORY_HwGetByte
0001:000239a0  _MEMORY_CopyFromMem
0001:00023a10  _MEMORY_HwPutByte
0001:00023f60  _MEMORY_CopyToMem
0002:00000734  _MEMORY_ram_size
0002:0000b24c  _MEMORY_axlon_num_banks
0002:0000b244  _MEMORY_mosaic_num_banks
0002:0000b240  _MEMORY_enable_mapram
0002:0000b258  _MEMORY_cartA0BF_enabled
0002:0000b248  _MEMORY_axlon_0f_mirror
0002:0000b250* _axlon_curbank
0002:0000b25c  _MEMORY_selftest_enabled
0002:0000b260  _MEMORY_xe_bank
0002:0000b254  _MEMORY_have_basic
Module: D:/var/temp\ldconv_atari800-monitor_o_db9067867179148058.obj(monitor.c)
0001:0002b930* _MONITOR_optype6502
0001:00026580  _MONITOR_Exit
0001:000265f0* _MONITOR_ShowState
0001:000267a0  _MONITOR_PreloadLabelFile
0001:000267b0  _MONITOR_BBRK_on
0001:000267c0  _MONITOR_BPC
0001:00028660  _MONITOR_Run
0002:00000746  _MONITOR_break_addr
0002:00013afc* _trainer_memory
0002:00013af8* _trainer_flags
0002:00013af4  _MONITOR_break_brk
0002:00013af6  _MONITOR_break_step
0002:00013af5  _MONITOR_break_ret
0002:00013af0  _MONITOR_ret_nesting
Module: D:/var/temp\ldconv_atari800-pbi_o_db90678671791518b0.obj(pbi.c)
0001:0002fd70  _PBI_Initialise
0001:0002fde0  _PBI_Exit
0001:0002fe00  _PBI_ReadConfig
0001:0002fe70  _PBI_WriteConfig
0001:0002fea0  _PBI_D1GetByte
0001:0002ff80  _PBI_D1PutByte
0001:00030130  _PBI_Reset
0001:00030180  _PBI_D6GetByte
0001:00030220  _PBI_D6PutByte
0001:000302d0  _PBI_D7GetByte
0001:00030300  _PBI_D7PutByte
0001:00030320  _PBI_StateSave
0001:00030370  _PBI_StateRead
0002:00013d80  _PBI_IRQ
0002:00013d84  _PBI_D6D7ram
Module: D:/var/temp\ldconv_atari800-pia_o_db9067867179158228.obj(pia.c)
0002:0006b1a8  _PIA_PACTL
0002:0006b1b0  _PIA_PBCTL
0002:0006b1b8  _PIA_PORT_input
0002:0006b1c0  _PIA_PORTA
0002:0006b1c8  _PIA_PORTB
0002:0006b1d0+ _PIA_PORTA_mask
0002:0006b1d8  _PIA_PORTB_mask
0001:00030430  _PIA_Initialise
0001:00030480  _PIA_Reset
0001:000304d0  _PIA_GetByte
0001:00030670  _PIA_PutByte
0001:00030c20  _PIA_StateSave
0001:00030d20  _PIA_StateRead
0002:00000764* _PIA_CA2
0002:00000760* _PIA_CB2
0002:00013da0  _PIA_IRQ
0002:00013db0* _PIA_CA2_negpending
0002:00013dac* _PIA_CA2_pospending
0002:00013da4* _PIA_CB2_pospending
0002:00013da8* _PIA_CB2_negpending
Module: D:/var/temp\ldconv_atari800-pokey_o_db906786717915fb40.obj(pokey.c)
0002:0006b1e0  _POKEY_AUDF
0002:0006b1f0  _POKEY_AUDCTL
0002:0006b1f8  _POKEY_Base_mult
0002:0006b208+ _POKEY_DivNMax
0002:0006b218  _POKEY_SKSTAT
0002:0006b220  _POKEY_KBCODE
0002:0006b228  _POKEY_SKCTL
0002:0006b230  _POKEY_poly17_lookup
0002:0006f240+ _POKEY_SERIN
0002:0006f248  _POKEY_IRQST
0002:0006f250  _POKEY_poly9_lookup
0002:0006f450+ _POKEY_DELAYED_SEROUT_IRQ
0002:0006f460+ _POKEY_DELAYED_XMTDONE_IRQ
0002:0006f470  _POKEY_AUDC
0002:0006f480  _POKEY_DELAYED_SERIN_IRQ
0002:0006f490  _POKEY_IRQEN
0002:0006f498+ _POKEY_DivNIRQ
0001:000310d0* _POKEY_GetRandomCounter
0001:000310e0* _POKEY_SetRandomCounter
0001:000310f0  _POKEY_GetByte
0001:000312b0  _POKEY_PutByte
0001:00031a00  _POKEY_Initialise
0001:00031bc0  _POKEY_Frame
0001:00031bf0  _POKEY_Scanline
0001:00031dd0  _POKEY_StateSave
0001:00031f10  _POKEY_StateRead
0002:00000770  _POKEY_POT_input
Module: D:/var/temp\ldconv_atari800-altirra_5200_os_o_db9067867179165900.obj(roms\altirra_5200_os.c)
0001:000320a0  _ROM_altirra_5200_os
Module: D:/var/temp\ldconv_atari800-rtime_o_db9067867179172038.obj(rtime.c)
0001:000329b0  _RTIME_ReadConfig
0001:00032a10  _RTIME_WriteConfig
0001:00032ab0  _RTIME_Initialise
0001:00032bb0  _RTIME_GetByte
0001:00032c30  _RTIME_PutByte
0002:00000780  _RTIME_enabled
Module: D:/var/temp\ldconv_atari800-sio_o_db90678671791789b0.obj(sio.c)
0002:0006f4a8  _SIO_format_sectorsize
0002:0006f4c8  _SIO_format_sectorcount
0002:0006f4e8  _SIO_filename
0002:0006fd08  _SIO_drive_status
0002:0006fd28  _SIO_last_sector
0002:0006fd38+ _SIO_status
0002:0006fe38  _SIO_last_op
0002:0006fe48  _SIO_last_drive
0001:00032e40  _SIO_Initialise
0001:00032ea0  _SIO_Dismount
0001:00032f50  _SIO_Exit
0001:00033de0  _SIO_Mount
0001:00034110  _SIO_DisableDrive
0001:00034150  _SIO_SizeOfSector
0001:00034410  _SIO_ReadSector
0001:00034a00  _SIO_WriteSector
0001:00034ac0  _SIO_FormatDisk
0001:00034b30  _SIO_WriteStatusBlock
0001:00034b60  _SIO_ReadStatusBlock
0001:00034be0  _SIO_DriveStatus
0001:00034dc0  _SIO_Handler
0001:000353f0  _SIO_ChkSum
0001:00035480  _SIO_SwitchCommandFrame
0001:00035560  _SIO_PutByte
0001:000357f0  _SIO_GetByte
0001:00035f20  _SIO_RotateDisks
0001:000360d0  _SIO_StateSave
0001:00036120  _SIO_StateRead
0002:00013e20* _ignore_header_writeprotect
0002:00013e24  _SIO_last_op_time
Module: D:/var/temp\ldconv_atari800-sysrom_o_db9067867179180a98.obj(sysrom.c)
0001:00036290  _SYSROM_SetPath
0001:000363b0  _SYSROM_FindInDir
0001:000366b0  _SYSROM_SetDefaults
0001:000366e0  _SYSROM_AutoChooseOS
0001:000367d0  _SYSROM_AutoChooseBASIC
0001:00036810  _SYSROM_AutoChooseXEGame
0001:00036850  _SYSROM_ChooseROMs
0001:00036a00  _SYSROM_LoadImage
0001:00036ae0  _SYSROM_ReadConfig
0001:00036e60  _SYSROM_WriteConfig
0001:000372a0  _SYSROM_Initialise
0002:000007b0  _SYSROM_roms
0002:000009fc  _SYSROM_os_versions
0002:000009f8  _SYSROM_basic_version
0002:000009f4  _SYSROM_xegame_version
Module: D:/var/temp\ldconv_atari800-util_o_db9067867179187410.obj(util.c)
0001:00037ed0  _Util_chrieq
0001:00037f00  _Util_stricmp
0001:00037f80  _Util_striendswith
0001:00037fe0  _Util_strnicmp
0001:00038080  _Util_stpcpy
0001:000380c0* _safe_strncpy
0001:00038110  _Util_strlcpy
0001:00038140  _Util_strupper
0001:00038170* _Util_strlower
0001:000381a0  _Util_chomp
0001:00038210  _Util_trim
0001:000382d0  _Util_sscandec
0001:000382f0  _Util_sscansdec
0001:00038370  _Util_sscandouble
0001:000383d0  _Util_sscanhex
0001:00038450  _Util_sscanbool
0001:000384a0  _Util_round
0001:000384f0  _Util_malloc
0001:00038530  _Util_realloc
0001:00038570  _Util_strdup
0001:000385b0  _Util_splitpath
0001:00038680  _Util_catpath
0001:00038710  _Util_filenamepattern
0001:00038770* _Util_fileexists
0001:000387a0  _Util_findnextfilename
0001:00038840  _Util_direxists
0001:00038870  _Util_flen
0001:000388a0  _Util_uniqopen
0001:000388e0  _Util_time
0001:000388f0  _Util_sleep
0001:00038910  _Util_getcwd
Module: D:/var/temp\ldconv_atari800-init_o_db906786717918d9a0.obj(sdl\init.c)
0001:00038970  _SDL_INIT_Initialise
0001:000389c0  _SDL_INIT_Exit
0001:000389d0  _PLATFORM_Sleep
0001:00038a10  _PLATFORM_Time
Module: D:/var/temp\ldconv_atari800-pokeysnd_o_db9067867179193b48.obj(pokeysnd.c)
0002:0006fe58  _POKEYSND_process_buffer_fill
0002:0006fe68  _POKEYSND_process_buffer_length
0001:000395f0  _POKEYSND_DoInit
0001:00039780  _POKEYSND_Init
0001:000398d0* _POKEYSND_SetMzQuality
0001:000398e0* _POKEYSND_Process
0001:00039920  _POKEYSND_UpdateProcessBuffer
0001:00039980  _POKEYSND_Update
0001:000399d0  _POKEYSND_SetVolume
0001:00039a10  _POKEYSND_UpdateConsol
0002:00000a10  _POKEYSND_GenerateSync
0002:00000a28  _POKEYSND_bienias_fix
0002:00000a24  _POKEYSND_volume
0002:00000a30  _POKEYSND_num_pokeys
0002:00000a2c  _POKEYSND_enable_new_pokey
0002:00000a34  _POKEYSND_playback_freq
0002:00000a1c  _POKEYSND_Update_ptr
0002:00000a18  _POKEYSND_UpdateConsol_ptr
0002:00000a20  _POKEYSND_Process_ptr
0002:00000a14  _POKEYSND_console_sound_enabled
0002:00015b34  _POKEYSND_stereo_enabled
0002:00015b30  _POKEYSND_process_buffer
0002:00015b38  _POKEYSND_snd_flags
Module: D:/var/temp\ldconv_atari800-mzpokeysnd_o_db906786717919a8a8.obj(mzpokeysnd.c)
0002:0006fe78+ _pokey_states
0001:0003bca0  _MZPOKEYSND_Init
Module: D:/var/temp\ldconv_atari800-remez_o_db90678671791a3160.obj(remez.c)
0001:0003cd30  _REMEZ_CreateFilter
Module: D:/var/temp\ldconv_atari800-sound_o_db90678671791aa2a8.obj(sound.c)
0002:00077cd8  _Sound_out
0002:00077cf8+ _last_audio_write_time
0001:0003ddd0  _Sound_ReadConfig
0001:0003df80  _Sound_WriteConfig
0001:0003e240  _Sound_Initialise
0001:0003e630  _Sound_Setup
0001:0003e860  _Sound_Exit
0001:0003e880  _Sound_Pause
0001:0003e8b0  _Sound_Continue
0001:0003e8f0  _Sound_Callback
0001:0003ea20  _Sound_Update
0001:0003ec20  _Sound_SetLatency
0001:0003ec50  _Sound_AdjustSpeed
0001:0003ed00  _Sound_NextPow2
0002:00000a5c  _Sound_enabled
0002:00000a48  _Sound_desired
0002:00000a40  _Sound_latency
Module: D:/var/temp\ldconv_atari800-sound_o_db90678671791af898.obj(sdl\sound.c)
0001:0003ed70  _PLATFORM_SoundSetup
0001:0003ee70  _PLATFORM_SoundExit
0001:0003ee90  _PLATFORM_SoundPause
0001:0003eeb0  _PLATFORM_SoundContinue
0001:0003eed0  _PLATFORM_SoundLock
0001:0003eee0  _PLATFORM_SoundUnlock
Module: D:/var/temp\ldconv_atari800-pokeyrec_o_db90678671791b5270.obj(pokeyrec.c)
0001:0003ef80  _POKEYREC_Recorder
0001:0003f210  _POKEYREC_Initialise
0001:0003f4b0  _POKEYREC_Exit
Module: D:/var/temp\ldconv_atari800-image_o_db90678671791ba478.obj(codecs\image.c)
0002:00077d08  _image_codec_left_margin
0002:00077d18  _image_codec_width
0002:00077d28  _image_codec_top_margin
0002:00077d38  _image_codec_height
0001:0003f4f0  _CODECS_IMAGE_SetMargins
0001:0003f520  _CODECS_IMAGE_Init
0002:0003a680  _image_codec
Module: D:/var/temp\ldconv_atari800-image_pcx_o_db90678671791c0a08.obj(codecs\image_pcx.c)
0002:00000a80  _Image_Codec_PCX
Module: D:/var/temp\ldconv_atari800-image_png_o_db90678671791cd910.obj(codecs\image_png.c)
0002:00000a90  _Image_Codec_PNG
Module: D:/var/temp\ldconv_atari800-file_export_o_db90678671791d4a58.obj(file_export.c)
0001:00040030  _File_Export_Initialise
0001:000402c0  _File_Export_ReadConfig
0001:00040370  _File_Export_WriteConfig
0001:000403b0  _fputw
0001:000403f0  _fputl
0001:00040450  _File_Export_SetErrorMessage
0001:00040480  _File_Export_SetErrorMessageArg
0001:000404d0  _File_Export_IsRecording
0001:000404e0  _File_Export_StopRecording
0001:00040500  _File_Export_StartRecording
0001:00040530  _File_Export_GetNextSoundFile
0001:000405a0  _File_Export_WriteAudio
0001:00040620  _File_Export_GetNextVideoFile
0001:00040690  _File_Export_WriteVideo
0001:00040700  _File_Export_GetRecordingStats
0001:00040770  _File_Export_ImageTypeSupported
0001:00040780  _File_Export_SaveScreen
0002:00000ab8  _FILE_EXPORT_compression_level
0002:00000abc  _FILE_EXPORT_error_message
Module: D:/var/temp\ldconv_atari800-container_o_db90678671791dac00.obj(codecs\container.c)
0002:00077d48  _byteswritten
0002:00077d58  _video_frame_count
0002:00077d68  _fps
0002:00077d78  _description
0001:000408a0* _CONTAINER_IsSupported
0001:000408f0  _CONTAINER_Open
0001:00040bf0  _CONTAINER_AddAudioSamples
0001:00040da0  _CONTAINER_AddVideoFrame
0001:00040f70  _CONTAINER_Close
0002:0003a920  _container
Module: D:/var/temp\ldconv_atari800-container_wav_o_db90678671791e2130.obj(codecs\container_wav.c)
0002:00000ad0  _Container_WAV
Module: D:/var/temp\ldconv_atari800-audio_o_db906786717a10.obj(codecs\audio.c)
0001:000416d0  _CODECS_AUDIO_Initialise
0001:00041950  _CODECS_AUDIO_ReadConfig
0001:000419f0  _CODECS_AUDIO_WriteConfig
0001:00041a50* _CODECS_AUDIO_CheckType
0001:00041ac0  _CODECS_AUDIO_Init
0001:00041be0  _CODECS_AUDIO_End
0002:0003a9dc  _audio_codec
0002:0003a9d4  _audio_buffer_size
0002:0003a9d0  _audio_buffer
0002:0003a9d8  _audio_out
Module: D:/var/temp\ldconv_atari800-audio_pcm_o_db906786717a16978.obj(codecs\audio_pcm.c)
0002:00000b10  _Audio_Codec_PCM
Module: D:/var/temp\ldconv_atari800-audio_adpcm_o_db906786717a1c738.obj(codecs\audio_adpcm.c)
0002:00000b50  _Audio_Codec_ADPCM_YAMAHA
0002:00000b90  _Audio_Codec_ADPCM_MS
0002:00000bd0  _Audio_Codec_ADPCM_IMA
0002:00000c10  _Audio_Codec_ADPCM
Module: D:/var/temp\ldconv_atari800-audio_mulaw_o_db906786717a114050.obj(codecs\audio_mulaw.c)
0002:00000c50  _Audio_Codec_PCM_MULAW
0002:00000c90  _Audio_Codec_MULAW
Module: D:/var/temp\ldconv_atari800-container_avi_o_db906786717a11a1f8.obj(codecs\container_avi.c)
0002:00000cd0  _Container_AVI
Module: D:/var/temp\ldconv_atari800-video_o_db906786717a120f58.obj(codecs\video.c)
0001:00044190  _CODECS_VIDEO_Initialise
0001:000444e0  _CODECS_VIDEO_ReadConfig
0001:000445f0  _CODECS_VIDEO_WriteConfig
0001:00044690  _CODECS_VIDEO_Init
0001:00044760  _CODECS_VIDEO_End
0002:0003ae80  _video_codec_keyframe_interval
0002:0003ae8c  _video_codec
0002:0003ae88  _video_buffer_size
0002:0003ae84  _video_buffer
Module: D:/var/temp\ldconv_atari800-video_mrle_o_db906786717a126160.obj(codecs\video_mrle.c)
0002:00000d10  _Video_Codec_MSRLE
0002:00000d30  _Video_Codec_MRLE
Module: D:/var/temp\ldconv_atari800-video_mpng_o_db906786717a12c308.obj(codecs\video_mpng.c)
0002:00000d50  _Video_Codec_MPNG
Module: D:/var/temp\ldconv_atari800-video_zmbv_o_db906786717a1320c8.obj(codecs\video_zmbv.c)
0002:00000d70  _Video_Codec_ZMBV
Module: D:/var/temp\ldconv_atari800-videomode_o_db906786717a139210.obj(videomode.c)
0002:00077d98+ _VIDEOMODE_actual_width
0002:00077da8  _VIDEOMODE_src_height
0002:00077db8  _VIDEOMODE_src_width
0002:00077dc8  _VIDEOMODE_dest_height
0002:00077dd8  _VIDEOMODE_dest_width
0002:00077de8  _VIDEOMODE_src_offset_left
0002:00077df8  _VIDEOMODE_src_offset_top
0002:00077e08  _VIDEOMODE_dest_offset_left
0002:00077e18  _VIDEOMODE_dest_offset_top
0001:00046690  _VIDEOMODE_NumAvailableResolutions
0001:000466a0  _VIDEOMODE_CopyResolutionName
0001:000466e0  _VIDEOMODE_GetFullscreenResolution
0001:000466f0  _VIDEOMODE_SetFullscreenResolution
0001:00046720  _VIDEOMODE_SetWindowSize
0001:00046760  _VIDEOMODE_Update
0001:00046780* _VIDEOMODE_SetWindowed
0001:000467c0  _VIDEOMODE_ToggleWindowed
0001:00046810  _VIDEOMODE_ForceWindowed
0001:00046860  _VIDEOMODE_SetHorizontalArea
0001:000468a0  _VIDEOMODE_ToggleHorizontalArea
0001:00046900  _VIDEOMODE_SetCustomHorizontalArea
0001:00046970  _VIDEOMODE_SetVerticalArea
0001:000469b0* _VIDEOMODE_ToggleVerticalArea
0001:00046a10  _VIDEOMODE_SetCustomVerticalArea
0001:00046a80  _VIDEOMODE_SetHorizontalOffset
0001:00046ac0  _VIDEOMODE_SetVerticalOffset
0001:00046b00  _VIDEOMODE_SetStretch
0001:00046b40* _VIDEOMODE_ToggleStretch
0001:00046ba0  _VIDEOMODE_SetCustomStretch
0001:00046c40  _VIDEOMODE_SetFit
0001:00046c80* _VIDEOMODE_ToggleFit
0001:00046ce0  _VIDEOMODE_SetKeepAspect
0001:00046d20* _VIDEOMODE_ToggleKeepAspect
0001:00046d80* _VIDEOMODE_SetRotate90
0001:00046dc0  _VIDEOMODE_ToggleRotate90
0001:00046e10  _VIDEOMODE_Set80Column
0001:00046e50  _VIDEOMODE_Toggle80Column
0001:00046ea0  _VIDEOMODE_ForceStandardScreen
0001:00046ee0* _VIDEOMODE_SetHostAspect
0001:00046fd0  _VIDEOMODE_SetHostAspectString
0001:00047010  _VIDEOMODE_SetVideoSystem
0001:00047050  _VIDEOMODE_UpdateXEP80
0001:000470c0  _VIDEOMODE_CopyHostAspect
0001:00047100  _VIDEOMODE_AutodetectHostAspect
0001:00047290  _VIDEOMODE_ReadConfig
0001:00047940  _VIDEOMODE_WriteConfig
0001:000481d0  _VIDEOMODE_Initialise
0001:00048b30  _VIDEOMODE_InitialiseDisplay
0001:00048de0  _VIDEOMODE_Exit
0002:00000da0  _VIDEOMODE_80_column
0002:00000ec0  _VIDEOMODE_horizontal_area
0002:00000ebc  _VIDEOMODE_custom_horizontal_area
0002:00000eb8  _VIDEOMODE_vertical_area
0002:00000eb4  _VIDEOMODE_custom_vertical_area
0002:00000ea0  _VIDEOMODE_keep_aspect
0002:00000eb0  _VIDEOMODE_stretch
0002:00000ea8  _VIDEOMODE_custom_stretch
0002:00000ea4  _VIDEOMODE_fit
0002:00000ec4  _VIDEOMODE_windowed
0002:0003b708  _VIDEOMODE_horizontal_offset
0002:0003b704  _VIDEOMODE_vertical_offset
0002:0003b6f8* _VIDEOMODE_host_aspect_ratio_w
0002:0003b6f0* _VIDEOMODE_host_aspect_ratio_h
0002:0003b700  _VIDEOMODE_rotate90
Module: D:/var/temp\ldconv_atari800-main_o_db906786717a13f7a0.obj(sdl\main.c)
0001:00048ec0  _PLATFORM_ConfigInit
0001:00048ed0  _PLATFORM_Configure
0001:00048f20  _PLATFORM_ConfigSave
0001:00048f40  _PLATFORM_Initialise
0001:00048fb0  _PLATFORM_Exit
0001:00049010  _main
0001:00049010* main
Module: D:/var/temp\ldconv_atari800-video_o_db906786717a1468e8.obj(sdl\video.c)
0002:00077e28  _SDL_VIDEO_native_bpp
0002:00077e38  _SDL_VIDEO_vsync_available
0002:00077e48  _SDL_VIDEO_height
0002:00077e58  _SDL_VIDEO_width
0001:00049090  _SDL_VIDEO_UpdatePaletteLookup
0001:000490f0  _PLATFORM_PaletteUpdate
0001:00049120  _PLATFORM_GetPixelFormat
0001:00049130  _PLATFORM_MapRGB
0001:00049140  _PLATFORM_SetVideoMode
0001:00049220  _PLATFORM_AvailableResolutions
0001:00049300  _PLATFORM_DesktopResolution
0001:00049310  _PLATFORM_SupportsVideomode
0001:00049320  _PLATFORM_WindowMaximised
0001:00049330  _PLATFORM_DisplayScreen
0001:00049370  _SDL_VIDEO_ReadConfig
0001:000494b0  _SDL_VIDEO_WriteConfig
0001:00049560* _SDL_VIDEO_InitSDL
0001:00049620* _SDL_VIDEO_QuitSDL
0001:00049660  _SDL_VIDEO_ReinitSDL
0001:00049810  _SDL_VIDEO_Initialise
0001:00049a90  _SDL_VIDEO_Exit
0001:00049ae0  _SDL_VIDEO_BlitNormal8
0001:00049b30  _SDL_VIDEO_BlitNormal16
0001:00049bb0  _SDL_VIDEO_BlitNormal32
0001:00049c10  _SDL_VIDEO_BlitXEP80_8
0001:00049c60  _SDL_VIDEO_BlitXEP80_16
0001:00049ce0  _SDL_VIDEO_BlitXEP80_32
0001:00049d40  _SDL_VIDEO_BlitProto80_8
0001:00049e20  _SDL_VIDEO_BlitProto80_16
0001:00049ef0  _SDL_VIDEO_BlitProto80_32
0001:00049fb0  _SDL_VIDEO_BlitAF80_8
0001:0004a0c0  _SDL_VIDEO_BlitAF80_16
0001:0004a1b0  _SDL_VIDEO_BlitAF80_32
0001:0004a280  _SDL_VIDEO_BlitBIT3_8
0001:0004a390  _SDL_VIDEO_BlitBIT3_16
0001:0004a480  _SDL_VIDEO_BlitBIT3_32
0001:0004a550  _SDL_VIDEO_SetScanlinesPercentage
0001:0004a580* _SDL_VIDEO_SetInterpolateScanlines
0001:0004a590  _SDL_VIDEO_ToggleInterpolateScanlines
0001:0004a5b0* _SDL_VIDEO_SetVsync
0001:0004a5f0  _SDL_VIDEO_ToggleVsync
0002:00000ed4  _SDL_VIDEO_scanlines_percentage
0002:00000ed0  _SDL_VIDEO_interpolate_scanlines
0002:0003b768  _SDL_VIDEO_current_display_mode
0002:0003b760  _SDL_VIDEO_vsync
0002:0003b764  _SDL_VIDEO_screen
Module: D:/var/temp\ldconv_atari800-video_sw_o_db906786717a14ca90.obj(sdl\video_sw.c)
0001:0004b9b0  _SDL_VIDEO_SW_GetPixelFormat
0001:0004b9e0  _SDL_VIDEO_SW_MapRGB
0001:0004ba60  _SDL_VIDEO_SW_PaletteUpdate
0001:0004bb60  _SDL_VIDEO_SW_SetVideoMode
0001:0004bf30  _SDL_VIDEO_SW_SupportsVideomode
0001:0004bf70  _SDL_VIDEO_SW_SetBpp
0001:0004bfb0* _SDL_VIDEO_SW_ToggleBpp
0001:0004c000  _SDL_VIDEO_SW_DisplayScreen
0001:0004c090  _SDL_VIDEO_SW_ReadConfig
0001:0004c100  _SDL_VIDEO_SW_WriteConfig
0001:0004c1a0  _SDL_VIDEO_SW_Initialise
0002:0003b790  _SDL_VIDEO_SW_bpp
Module: D:/var/temp\ldconv_atari800-input_o_db906786717a152850.obj(sdl\input.c)
0001:0004c480  _PLATFORM_IsKbdJoystickEnabled
0001:0004c4a0  _PLATFORM_ToggleKbdJoystickEnabled
0001:0004c520  _SDL_INPUT_GetRealJSConfig
0001:0004c6d0  _SDL_INPUT_ReadConfig
0001:0004cf10  _SDL_INPUT_WriteConfig
0001:0004d190  _PLATFORM_SetJoystickKey
0001:0004d250  _PLATFORM_GetJoystickKeyName
0001:0004d350  _PLATFORM_GetRawKey
0001:0004d380  _PLATFORM_Keyboard
0001:0004eeb0  _SDL_INPUT_Mouse
0001:0004f320  _SDL_INPUT_Initialise
0001:0004f870  _SDL_INPUT_Exit
0001:0004f890  _SDL_INPUT_Restart
0001:0004f8e0  _PLATFORM_PORT
0001:0004f910  _PLATFORM_TRIG
Module: D:/var/temp\ldconv_atari800-palette_o_db906786717a15fb40.obj(sdl\palette.c)
0002:00077e68  _SDL_PALETTE_buffer
0001:0004fa50* _SDL_PALETTE_Calculate32_A8R8G8B8
0001:0004fa80* _SDL_PALETTE_Calculate32_B8G8R8A8
0001:0004fad0* _SDL_PALETTE_Calculate16_R5G6B5
0001:0004fb30* _SDL_PALETTE_Calculate16_B5G6R5
0001:0004fb90  _SDL_PALETTE_tab
Module: D:/var/temp\ldconv_atari800-pbi_proto80_o_db906786717a167840.obj(pbi_proto80.c)
0001:0004fc70  _PBI_PROTO80_Initialise
0001:0004fdd0  _PBI_PROTO80_Exit
0001:0004fe10  _PBI_PROTO80_ReadConfig
0001:0004fe70  _PBI_PROTO80_WriteConfig
0001:0004fea0  _PBI_PROTO80_D1GetByte
0001:0004feb0* _PBI_PROTO80_D1PutByte
0001:0004fec0  _PBI_PROTO80_D1ffPutByte
0001:0004ff20  _PBI_PROTO80_GetPixels
0002:0003b8e0  _PBI_PROTO80_enabled
Module: D:/var/temp\ldconv_atari800-af80_o_db906786717a16d218.obj(af80.c)
0002:00078268  _AF80_palette
0001:000500d0  _AF80_Exit
0001:00050140  _AF80_InsertRightCartridge
0001:00050170  _AF80_ReadConfig
0001:00050230  _AF80_WriteConfig
0001:00050270  _AF80_D6GetByte
0001:000502d0  _AF80_D6PutByte
0001:00050360  _AF80_D5GetByte
0001:00050370  _AF80_D5PutByte
0001:000505f0  _AF80_GetPixels
0001:00050730  _AF80_Reset
0001:00050900  _AF80_Initialise
0002:0003ba10  _AF80_enabled
Module: D:/var/temp\ldconv_atari800-bit3_o_db906786717a173b90.obj(bit3.c)
0001:00050ba0  _BIT3_Exit
0001:00050c10  _BIT3_ReadConfig
0001:00050cd0  _BIT3_WriteConfig
0001:00050d10  _BIT3_D6GetByte
0001:00050d20  _BIT3_D6PutByte
0001:00050d30  _BIT3_D5GetByte
0001:00050dc0  _BIT3_D5PutByte
0001:00050ef0  _BIT3_GetPixels
0001:00050fe0  _BIT3_Reset
0001:00051180  _BIT3_Initialise
0002:00000f60  _BIT3_palette
0002:0003be00  _BIT3_enabled
Module: D:/var/temp\ldconv_atari800-input_o_db906786717a179180.obj(input.c)
0001:00051b80  _INPUT_Initialise
0001:00052380  _INPUT_Exit
0001:00052410  _INPUT_Frame
0001:00053310  _INPUT_Recording
0001:00053320  _INPUT_Playingback
0001:00053330  _INPUT_RecordInt
0001:00053370  _INPUT_PlaybackInt
0001:000533d0  _INPUT_Scanline
0001:000534a0  _INPUT_SelectMultiJoy
0001:000534e0* _INPUT_CenterMousePointer
0001:00053560  _INPUT_DrawMousePointer
0002:00000f98  _INPUT_mouse_speed
0002:00000fb0  _INPUT_key_code
0002:00000fa8* _INPUT_joy_block_opposite_directions
0002:00000f8c* _INPUT_mouse_pen_ofs_h
0002:00000f88* _INPUT_mouse_pen_ofs_v
0002:00000f84* _INPUT_mouse_joy_inertia
0002:00000fa0* _INPUT_joy_5200_center
0002:00000f9c* _INPUT_joy_5200_max
0002:00000fa4* _INPUT_joy_5200_min
0002:00000f94* _INPUT_mouse_pot_min
0002:00000fac  _INPUT_key_consol
0002:00000f90* _INPUT_mouse_pot_max
0002:0003c0d4  _INPUT_mouse_mode
0002:0003c0d0  _INPUT_mouse_port
0002:0003c0c0  _INPUT_direct_mouse
0002:0003c0dc  _INPUT_joy_multijoy
0002:0003c0d8  _INPUT_cx85
0002:0003c0f0  _INPUT_key_shift
0002:0003c0e0  _INPUT_joy_autofire
0002:0003c0cc  _INPUT_mouse_delta_x
0002:0003c0c8  _INPUT_mouse_delta_y
0002:0003c0c4  _INPUT_mouse_buttons
Module: D:/var/temp\ldconv_atari800-statesav_o_db906786717a1850e8.obj(statesav.c)
0001:000538b0  _StateSav_SaveUBYTE
0001:000538f0  _StateSav_ReadUBYTE
0001:00053930  _StateSav_SaveUWORD
0001:00053960  _StateSav_ReadUWORD
0001:00053990  _StateSav_SaveINT
0001:00053a90  _StateSav_ReadINT
0001:00053ba0  _StateSav_SaveFNAME
0001:00053cc0  _StateSav_ReadFNAME
0001:00053d60  _StateSav_SaveAtariState
0001:00053f80  _StateSav_ReadAtariState
Module: D:/var/temp\ldconv_atari800-ui_basic_o_db906786717a18c230.obj(ui_basic.c)
0001:00056680* _UI_BASIC_key_to_ascii
0001:000565e0  _GetRawKey
0002:00000fe0  _UI_BASIC_driver
Module: D:/var/temp\ldconv_atari800-ui_o_db906786717a19cbd0.obj(ui.c)
0002:000782a8  _UI_atari_files_dir
0002:00078ac8  _UI_saved_files_dir
0002:000792e8  _UI_crash_address
0002:000792f8  _UI_crash_afterCIM
0001:00059340  _UI_SelectCartType
0001:00059410* _UI_SelectCartTypeBetween
0001:0005a3d0  _UI_Initialise
0001:0005a620* _CrashMenu
0001:0005add0  _UI_Run
0002:0000292c* _UI_driver
0002:00002920  _UI_crash_code
0002:00002928  _UI_alt_function
0002:00002924* _UI_current_function
0002:0003d3d0  _UI_show_hidden_files
0002:0003d3d8  _UI_n_atari_files_dir
0002:0003d3d4  _UI_n_saved_files_dir
0002:0003d3dc  _UI_is_active
Module: D:/var/temp\ldconv_atari800-artifact_o_db906786717a1ab248.obj(artifact.c)
0001:00061440  _ARTIFACT_Set
0001:00061490  _ARTIFACT_SetTVMode
0001:000614f0  _ARTIFACT_ReadConfig
0001:00061620  _ARTIFACT_WriteConfig
0001:000617c0  _ARTIFACT_Initialise
0002:0003dce0  _ARTIFACT_mode
Module: D:/var/temp\ldconv_atari800-colours_o_db906786717a1b2390.obj(colours.c)
0002:00079308  _Colours_external
0002:00079318  _Colours_table
0002:00079718  _Colours_setup
0001:00061bd0  _Colours_SetRGB
0001:00061c30  _Colours_RGB2YUV
0001:00061cb0  _Colours_YUV2RGB
0001:00061d10  _Colours_Gamma2Linear
0001:00061d40  _Colours_Linear2sRGB
0001:00061db0  _Colours_SetVideoSystem
0001:00061e20  _Colours_Update
0001:00061e40  _Colours_RestoreDefaults
0001:00061e50  _Colours_SetPreset
0001:00061e70  _Colours_GetPreset
0001:00061fa0  _Colours_Save
0001:00062050  _Colours_PreInitialise
0001:00062140  _Colours_ReadConfig
0001:00062190  _Colours_WriteConfig
0001:00062370  _Colours_Initialise
Module: D:/var/temp\ldconv_atari800-colours_ntsc_o_db906786717a1b90f0.obj(colours_ntsc.c)
0002:00079728  _COLOURS_NTSC_setup
0001:00062dd0  _COLOURS_NTSC_GetYIQ
0001:00062e10  _COLOURS_NTSC_Update
0001:00063030  _COLOURS_NTSC_RestoreDefaults
0001:00063050  _COLOURS_NTSC_GetPreset
0001:00063170  _COLOURS_NTSC_ReadConfig
0001:00063480  _COLOURS_NTSC_WriteConfig
0001:000637d0  _COLOURS_NTSC_Initialise
0002:0003dd10  _COLOURS_NTSC_external
Module: D:/var/temp\ldconv_atari800-colours_pal_o_db906786717a1bf298.obj(colours_pal.c)
0002:00079768  _COLOURS_PAL_setup
0001:00063cb0  _COLOURS_PAL_GetYUV
0001:00064120  _COLOURS_PAL_Update
0001:000642e0  _COLOURS_PAL_RestoreDefaults
0001:00064300  _COLOURS_PAL_GetPreset
0001:00064410  _COLOURS_PAL_ReadConfig
0001:00064710  _COLOURS_PAL_WriteConfig
0001:00064a50  _COLOURS_PAL_Initialise
0002:0003e130  _COLOURS_PAL_external
Module: D:/var/temp\ldconv_atari800-colours_external_o_db906786717a1c5c10.obj(colours_external.c)
0001:00065040  _COLOURS_EXTERNAL_Read
0001:000650e0  _COLOURS_EXTERNAL_Remove
0001:00065100* _COLOURS_EXTERNAL_ReadFilename
Module: D:/var/temp\ldconv_atari800-screen_o_db906786717a1cd910.obj(screen.c)
0001:000653a0  _Screen_Initialise
0001:00065680  _Screen_ReadConfig
0001:00065850  _Screen_WriteConfig
0001:000658e0  _Screen_DrawAtariSpeed
0001:00065a10  _Screen_DrawDiskLED
0001:00065cd0  _Screen_Draw1200LED
0001:00065db0  _Screen_DrawMultimediaStats
0001:000662b0  _Screen_SaveScreenshot
0001:000663c0  _Screen_SaveNextScreenshot
0001:00066450* _Screen_EntireDirty
0002:000029c4* _Screen_show_multimedia_stats
0002:000029cc  _Screen_show_1200_leds
0002:000029d0  _Screen_show_disk_led
0002:000029d4  _Screen_visible_y2
0002:000029dc  _Screen_visible_x1
0002:000029d8  _Screen_visible_x2
0002:0003e55c  _Screen_atari
0002:0003e554  _Screen_show_atari_speed
0002:0003e550  _Screen_show_sector_counter
0002:0003e558  _Screen_visible_y1
Module: D:/var/temp\ldconv_atari800-cycle_map_o_db906786717a1d3ab8.obj(cycle_map.c)
0002:000797a8  _CYCLE_MAP_antic2cpu
0002:00087e48  _CYCLE_MAP_cpu2antic
0001:000669a0  _CYCLE_MAP_Create
Module: D:/var/temp\ldconv_atari800-altirraos_800_o_db906786717a1db3d0.obj(roms\altirraos_800.c)
0001:00066b00  _ROM_altirraos_800
Module: D:/var/temp\ldconv_atari800-altirraos_xl_o_db906786717a1e1960.obj(roms\altirraos_xl.c)
0001:00069300  _ROM_altirraos_xl
Module: D:/var/temp\ldconv_atari800-altirra_basic_o_db906786717b10.obj(roms\altirra_basic.c)
0001:0006d300  _ROM_altirra_basic
Module: D:/var/temp\ldconv_atari800-pbi_mio_o_db906786717b155f0.obj(pbi_mio.c)
0001:0006f490  _PBI_MIO_Initialise
0001:0006f540  _PBI_MIO_Exit
0001:0006f5b0  _PBI_MIO_ReadConfig
0001:0006f670  _PBI_MIO_WriteConfig
0001:0006f6c0  _PBI_MIO_D1GetByte
0001:0006f770  _PBI_MIO_D1PutByte
0001:0006fa80  _PBI_MIO_D6GetByte
0001:0006fab0  _PBI_MIO_D6PutByte
0001:0006fad0  _PBI_MIO_StateSave
0001:0006fb80  _PBI_MIO_StateRead
0002:0003e6a0  _PBI_MIO_enabled
Module: D:/var/temp\ldconv_atari800-pbi_bb_o_db906786717b1c738.obj(pbi_bb.c)
0001:0006fe30  _PBI_BB_Initialise
0001:0006fee0  _PBI_BB_Exit
0001:0006ff50  _PBI_BB_ReadConfig
0001:00070020  _PBI_BB_WriteConfig
0001:00070070  _PBI_BB_D1GetByte
0001:00070180  _PBI_BB_D1PutByte
0001:00070470  _PBI_BB_D6GetByte
0001:00070480  _PBI_BB_D6PutByte
0001:000704a0  _PBI_BB_Menu
0001:000704d0  _PBI_BB_Frame
0001:00070540  _PBI_BB_StateSave
0001:000705f0  _PBI_BB_StateRead
0002:0003e820  _PBI_BB_enabled
Module: D:/var/temp\ldconv_atari800-pbi_scsi_o_db906786717b118e70.obj(pbi_scsi.c)
0001:000706a0  _PBI_SCSI_PutSEL
0001:00070720  _PBI_SCSI_PutACK
0001:00070b30  _PBI_SCSI_GetByte
0001:00070b40  _PBI_SCSI_PutByte
0002:0003e9e4  _PBI_SCSI_SEL
0002:0003e9ec  _PBI_SCSI_REQ
0002:0003e9f0  _PBI_SCSI_BSY
0002:0003e9fc  _PBI_SCSI_CD
0002:0003e9f4  _PBI_SCSI_IO
0002:0003e9f8  _PBI_SCSI_MSG
0002:0003e9e8* _PBI_SCSI_ACK
0002:0003e9e0  _PBI_SCSI_disk
Module: D:/var/temp\ldconv_atari800-pbi_xld_o_db906786717b122e98.obj(pbi_xld.c)
0001:00070cd0  _PBI_XLD_Initialise
0001:00070e20  _PBI_XLD_Exit
0001:00070ea0  _PBI_XLD_ReadConfig
0001:00070f60  _PBI_XLD_WriteConfig
0001:00070fa0  _PBI_XLD_Reset
0001:00071110  _PBI_XLD_D1GetByte
0001:00071730  _PBI_XLD_D1ffGetByte
0001:00071740  _PBI_XLD_D1ffPutByte
0001:000717c0  _PBI_XLD_votrax_busy_callback
0001:00071850  _PBI_XLD_D1PutByte
0001:00071b50  _PBI_XLD_StateSave
0001:00071c70  _PBI_XLD_StateRead
0002:0003eb40  _PBI_XLD_v_enabled
0002:0003eb44  _PBI_XLD_enabled
Module: D:/var/temp\ldconv_atari800-voicebox_o_db906786717b129fe0.obj(voicebox.c)
0001:00071e80  _VOICEBOX_Initialise
0001:00071f90  _VOICEBOX_SKCTLPutByte
0001:00072060  _VOICEBOX_SEROUTPutByte
0002:0003ef04  _VOICEBOX_enabled
0002:0003ef00  _VOICEBOX_ii
Module: D:/var/temp\ldconv_atari800-votrax_o_db906786717b12fda0.obj(votrax.c)
0001:00072610  _Votrax_PutByte
0001:000726a0  _Votrax_GetStatus
0001:000726b0  _Votrax_Update
0001:00072830  _Votrax_Start
0001:000728d0  _Votrax_Stop
0001:00072900  _Votrax_Samples
Module: D:/var/temp\ldconv_atari800-votraxsnd_o_db906786717b139dc8.obj(votraxsnd.c)
0001:0008d1f0  _VOTRAXSND_PutByte
0001:0008d2d0  _VOTRAXSND_Init
0001:0008d420  _VOTRAXSND_Reinit
0001:0008d460  _VOTRAXSND_Frame
0001:0008d560  _VOTRAXSND_Process
0002:0003ef80  _VOTRAXSND_busy
0002:0003ef88* _temp_votrax_buffer
0002:0003ef84* _votrax_buffer
Module: D:/var/temp\ldconv_atari800-ide_o_db906786717b140740.obj(ide.c)
0002:000964e8+ _device
0001:0008e370  _IDE_PutByte
0001:0008f200  _IDE_GetByte
0001:0008f4e0  _IDE_Initialise
0001:0008fa00  _IDE_Exit
0002:0003f050* _IDE_debug
0002:0003f054  _IDE_enabled
Module: D:/var/temp\ldconv_atari800-xep80_o_db906786717b146500.obj(xep80.c)
0002:00096598  _XEP80_screen_1
0002:000bf5d8  _XEP80_screen_2
0002:000e8618+ _font
0001:00090ce0* _XEP80_ChangeColors
0001:00090d10  _XEP80_ReadConfig
0001:00090d70  _XEP80_WriteConfig
0001:00090da0  _XEP80_SetEnabled
0001:00090ec0  _XEP80_Initialise
0001:000910d0  _XEP80_GetBit
0001:000911b0  _XEP80_PutBit
0001:00092040  _XEP80_StateSave
0001:00092390  _XEP80_StateRead
0002:00002c54  _XEP80_char_height
0002:00002c50  _XEP80_scrn_height
0002:0003f074  _XEP80_enabled
0002:0003f070  _XEP80_port
Module: D:/var/temp\ldconv_atari800-xep80_fonts_o_db906786717b14bed8.obj(xep80_fonts.c)
0002:000e8628  _XEP80_FONTS_atari_fonts
0001:00092890  _XEP80_FONTS_InitFonts
0002:00002c60  _XEP80_FONTS_oncolor
0002:00002c80* _internal_font
0002:00041420  _XEP80_FONTS_offcolor
0002:00041424  _XEP80_FONTS_inited
Module: D:/var/temp\ldconv_atari800-filter_ntsc_o_db906786717b152080.obj(filter_ntsc.c)
0002:00166628  _FILTER_NTSC_setup
0001:00092e50  _FILTER_NTSC_New
0001:00092e70  _FILTER_NTSC_Delete
0001:00092e80  _FILTER_NTSC_Update
0001:00092f50  _FILTER_NTSC_RestoreDefaults
0001:00092f70  _FILTER_NTSC_SetPreset
0001:00092f90  _FILTER_NTSC_GetPreset
0001:00093140  _FILTER_NTSC_NextPreset
0001:00093170  _FILTER_NTSC_PreInitialise
0001:00093200  _FILTER_NTSC_ReadConfig
0001:000933d0  _FILTER_NTSC_WriteConfig
0001:00093780  _FILTER_NTSC_Initialise
0002:00041430  _FILTER_NTSC_emu
Module: D:/var/temp\ldconv_atari800-atari_ntsc_o_db906786717b157e40.obj(atari_ntsc\atari_ntsc.c)
0001:00093b80  _atari_ntsc_init
0001:00096920* _atari_ntsc_pixels
0001:00096aa0  _atari_ntsc_composite
0001:00094af0  _atari_ntsc_blit_rgb16
0001:00095250* _atari_ntsc_blit_bgr16
0001:000959b0  _atari_ntsc_blit_argb32
0001:00096160* _atari_ntsc_blit_bgra32
0001:000969a0  _atari_ntsc_rgb
0001:00096a20  _atari_ntsc_svideo
0001:00096b20  _atari_ntsc_monochrome
Module: D:/var/temp\ldconv_atari800-pal_blending_o_db906786717b15f758.obj(pal_blending.c)
0001:00096ce0  _PAL_BLENDING_UpdateLookup
0001:00097110  _PAL_BLENDING_Blit16
0001:00097240  _PAL_BLENDING_Blit32
0001:00097310  _PAL_BLENDING_BlitScaled16
0001:000974b0  _PAL_BLENDING_BlitScaled32
Module: D:\usr\lib\libend.lib(src/libend/386/endlink386.asm)
0002:001666a0  _end
0002:000057d0  _edata
Module: D:\usr\lib\libend.lib(src/libend/386/end.asm)
0001:00097720* _etext
0001:00097720* __etext
0000:00000000* WEAK$ZERO
0002:001666a0  __end
0002:000057d0  __edata
Module: D:\usr\lib\gcc\i686-pc-os2-emx\9\libgcc_so_d.lib(__main.obj)
0001:000975e0* ___do_global_dtors
0001:000975e5* ___do_global_ctors
0001:000975fe  ___main
Module: D:\usr\lib\gcc\i686-pc-os2-emx\9\libgcc_so_d.lib(emx-ctordtor.obj)
0001:00097630  ___ctordtorInit
0001:00097664  ___ctordtorTerm
Module: D:\usr\lib\gcc\i686-pc-os2-emx\9\libgcc_so_d.lib(emx-eh.obj)
0001:000976a0  ___ehInit
0001:000976dc* ___ehTerm


                        +----------------------+
                        |   Imported Symbols   |
                        +----------------------+

Symbol                              Module
======                              ======

___libc_ForkRegisterModule          libcn0
___init_app                         libcx0
__response                          libcn0
__wildcard                          libcn0
__CRT_init                          libcn0
__atfork_callback                   libcn0
__fmode_bin                         libcn0
_fread                              libcx0
_gzopen                             z1
_gzread                             z1
_gzclose                            z1
_crc32                              z1
__errno                             libcn0
___chkstk_ms                        gcc1
___stdoutp                          libcn0
___stdinp                           libcn0
___libc_GLocaleCtype                libcn0
SDL_Init                            SDL120
SDL_Quit                            SDL120
SDL_GetError                        SDL120
SDL_Delay                           SDL120
SDL_GetTicks                        SDL120
SDL_CloseAudio                      SDL120
SDL_OpenAudio                       SDL120
SDL_InitSubSystem                   SDL120
SDL_QuitSubSystem                   SDL120
SDL_PauseAudio                      SDL120
SDL_LockAudio                       SDL120
SDL_UnlockAudio                     SDL120
_png_create_write_struct            png1616
_png_create_info_struct             png1616
_png_init_io                        png1616
_png_set_compression_level          png1616
_png_set_IHDR                       png1616
_png_set_rows                       png1616
_png_write_png                      png1616
_png_destroy_write_struct           png1616
_png_set_PLTE                       png1616
_png_set_write_fn                   png1616
_deflateInit_                       z1
_deflateEnd                         z1
_deflate                            z1
_deflateReset                       z1
SDL_PumpEvents                      SDL120
SDL_PeepEvents                      SDL120
SDL_ListModes                       SDL120
SDL_WM_SetCaption                   SDL120
SDL_GetVideoInfo                    SDL120
SDL_EnableUNICODE                   SDL120
SDL_SetPalette                      SDL120
SDL_MapRGB                          SDL120
SDL_SetVideoMode                    SDL120
SDL_FillRect                        SDL120
SDL_Flip                            SDL120
SDL_ShowCursor                      SDL120
SDL_LockSurface                     SDL120
SDL_UnlockSurface                   SDL120
SDL_UpdateRect                      SDL120
SDL_JoystickUpdate                  SDL120
SDL_JoystickGetHat                  SDL120
SDL_JoystickGetAxis                 SDL120
SDL_GetKeyName                      SDL120
SDL_PollEvent                       SDL120
SDL_WM_GrabInput                    SDL120
SDL_GetMouseState                   SDL120
SDL_GetRelativeMouseState           SDL120
SDL_NumJoysticks                    SDL120
SDL_GetKeyState                     SDL120
SDL_JoystickOpen                    SDL120
SDL_JoystickName                    SDL120
SDL_JoystickNumButtons              SDL120
SDL_JoystickGetButton               SDL120
_gzprintf                           z1
_gzgets                             z1
_adler32                            z1
_gzeof                              z1
_gzerror                            z1
_gzwrite                            z1
___stderrp                          libcn0
___divmoddi4                        gcc1
___divdi3                           gcc1
__assert                            libcn0
__std_exit                          libcn0
__std_fopen                         libcn0
__std_fclose                        libcn0
__std_memset                        libcn0
__std_memcpy                        libcn0
__std_signal                        libcn0
__std_puts                          libcn0
__std_strcmp                        libcn0
__std_printf                        libcn0
__std_fgetc                         libcn0
__std_free                          libcn0
__std_fwrite                        libcn0
__std_rewind                        libcn0
__std_strcpy                        libcn0
__std_fprintf                       libcn0
__std_getenv                        libcn0
__std_fgets                         libcn0
__std_strchr                        libcn0
__std_perror                        libcn0
__std_feof                          libcn0
__std_fseek                         libcn0
__std_unlink                        libcn0
__std_fputc                         libcn0
__std_sprintf                       libcn0
__std_system                        libcn0
__std_closedir                      libcn0
__std_opendir                       libcn0
__std_readdir                       libcn0
__std_stat                          libcn0
__std_localtime                     libcn0
__std_rename                        libcn0
__std_chmod                         libcn0
__std_mkdir                         libcn0
__std_ftell                         libcn0
__std_rmdir                         libcn0
__std_tmpfile                       libcn0
__std_strrchr                       libcn0
__std_fflush                        libcn0
__std_strlen                        libcn0
__std_vsnprintf                     libcn0
__std_fputs                         libcn0
__std_putchar                       libcn0
__std_strtod                        libcn0
__std_log10                         libcn0
__std_pow                           libcn0
__std_floor                         libcn0
__std_snprintf                      libcn0
__std_malloc                        libcn0
__std_pclose                        libcn0
__std_popen                         libcn0
__std_time                          libcn0
__std_rand                          libcn0
__std_strncpy                       libcn0
__std_memmove                       libcn0
__std_realloc                       libcn0
__std_mkstemp                       libcn0
__std_fdopen                        libcn0
__std_getcwd                        libcn0
__std_atexit                        libcn0
__std_modf                          libcn0
__std_cos                           libcn0
__std_sin                           libcn0
__std_clearerr                      libcn0
__std_ferror                        libcn0
__std_log2                          libcn0
__std_qsort                         libcn0
__std_sscanf                        libcn0
__std_strerror                      libcn0
__std_strncmp                       libcn0
__std_atoi                          libcn0
__std_atof                          libcn0
__std_cexp                          libcn0
__std_sqrt                          libcn0
__std_fseeko                        libcn0
__std_ftello                        libcn0
__std_exp                           libcn0
___ctordtorInit1                    libcn0
___ctordtorTerm1                    libcn0
___register_frame_table             gcc1
___deregister_frame                 gcc1


                        +--------------------+
                        |   Libraries Used   |
                        +--------------------+

D:\var\temp\ldconv_libz_dll_a_db906786717b16c660.lib
D:\var\temp\ldconv_libcx_a_db906786717b171868.lib
D:\usr\lib\SDL_dll.lib
D:\var\temp\ldconv_libpng_dll_a_db906786717b17d7d0.lib
D:\usr\lib\gcc\i686-pc-os2-emx\9\libgcc_so_d.lib
D:\usr\lib\libc_alias.lib
D:\usr\lib\libc_dll.lib
D:\usr\lib\libend.lib


                        +-----------------------+
                        |   Linker Statistics   |
                        +-----------------------+

Stack size:  00100000 (1048576.)
Memory size:  002fddc0 (3136960.)
Entry point address: 0001:00000000
Link time: 00:00.80
